; ModuleID = '60/165.c'
source_filename = "60/165.c"
target datalayout = "e-m:e-p270:32:32-p271:32:32-p272:64:64-i64:64-f80:128-n8:16:32:64-S128"
target triple = "x86_64-pc-linux-gnu"

@.str = private unnamed_addr constant [3 x i8] c"%d\00", align 1
@.str.1 = private unnamed_addr constant [6 x i8] c"empty\00", align 1
@.str.2 = private unnamed_addr constant [7 x i8] c"%d %d\0A\00", align 1

; Function Attrs: noinline nounwind uwtable
define dso_local void @main() #0 {
  %1 = alloca i32, align 4
  %2 = alloca i32, align 4
  %3 = alloca i32, align 4
  %4 = alloca i32, align 4
  %5 = alloca [10000 x i32], align 16
  %6 = call i32 (i8*, ...) @__isoc99_scanf(i8* getelementptr inbounds ([3 x i8], [3 x i8]* @.str, i64 0, i64 0), i32* %1)
  %7 = load i32, i32* %1, align 4
  %8 = icmp eq i32 %7, 4
  br i1 %8, label %9, label %11

9:                                                ; preds = %0
  %10 = call i32 (i8*, ...) @printf(i8* getelementptr inbounds ([6 x i8], [6 x i8]* @.str.1, i64 0, i64 0))
  br label %96

11:                                               ; preds = %0
  store i32 0, i32* %2, align 4
  %12 = load i32, i32* %2, align 4
  %13 = sext i32 %12 to i64
  %14 = getelementptr inbounds [10000 x i32], [10000 x i32]* %5, i64 0, i64 %13
  store i32 3, i32* %14, align 4
  br label %15

15:                                               ; preds = %92, %11
  %16 = load i32, i32* %2, align 4
  %17 = sext i32 %16 to i64
  %18 = getelementptr inbounds [10000 x i32], [10000 x i32]* %5, i64 0, i64 %17
  %19 = load i32, i32* %18, align 4
  %20 = load i32, i32* %1, align 4
  %21 = icmp slt i32 %19, %20
  br i1 %21, label %22, label %95

22:                                               ; preds = %15
  store i32 1, i32* %3, align 4
  store i32 2, i32* %4, align 4
  br label %23

23:                                               ; preds = %41, %22
  %24 = load i32, i32* %4, align 4
  %25 = load i32, i32* %2, align 4
  %26 = sext i32 %25 to i64
  %27 = getelementptr inbounds [10000 x i32], [10000 x i32]* %5, i64 0, i64 %26
  %28 = load i32, i32* %27, align 4
  %29 = sdiv i32 %28, 2
  %30 = icmp sle i32 %24, %29
  br i1 %30, label %31, label %44

31:                                               ; preds = %23
  %32 = load i32, i32* %2, align 4
  %33 = sext i32 %32 to i64
  %34 = getelementptr inbounds [10000 x i32], [10000 x i32]* %5, i64 0, i64 %33
  %35 = load i32, i32* %34, align 4
  %36 = load i32, i32* %4, align 4
  %37 = srem i32 %35, %36
  %38 = icmp eq i32 %37, 0
  br i1 %38, label %39, label %40

39:                                               ; preds = %31
  store i32 0, i32* %3, align 4
  br label %44

40:                                               ; preds = %31
  br label %41

41:                                               ; preds = %40
  %42 = load i32, i32* %4, align 4
  %43 = add nsw i32 %42, 1
  store i32 %43, i32* %4, align 4
  br label %23

44:                                               ; preds = %39, %23
  %45 = load i32, i32* %2, align 4
  %46 = sext i32 %45 to i64
  %47 = getelementptr inbounds [10000 x i32], [10000 x i32]* %5, i64 0, i64 %46
  %48 = load i32, i32* %47, align 4
  %49 = add nsw i32 %48, 2
  %50 = load i32, i32* %2, align 4
  %51 = add nsw i32 %50, 1
  %52 = sext i32 %51 to i64
  %53 = getelementptr inbounds [10000 x i32], [10000 x i32]* %5, i64 0, i64 %52
  store i32 %49, i32* %53, align 4
  store i32 2, i32* %4, align 4
  br label %54

54:                                               ; preds = %74, %44
  %55 = load i32, i32* %4, align 4
  %56 = load i32, i32* %2, align 4
  %57 = add nsw i32 %56, 1
  %58 = sext i32 %57 to i64
  %59 = getelementptr inbounds [10000 x i32], [10000 x i32]* %5, i64 0, i64 %58
  %60 = load i32, i32* %59, align 4
  %61 = sdiv i32 %60, 2
  %62 = icmp sle i32 %55, %61
  br i1 %62, label %63, label %77

63:                                               ; preds = %54
  %64 = load i32, i32* %2, align 4
  %65 = add nsw i32 %64, 1
  %66 = sext i32 %65 to i64
  %67 = getelementptr inbounds [10000 x i32], [10000 x i32]* %5, i64 0, i64 %66
  %68 = load i32, i32* %67, align 4
  %69 = load i32, i32* %4, align 4
  %70 = srem i32 %68, %69
  %71 = icmp eq i32 %70, 0
  br i1 %71, label %72, label %73

72:                                               ; preds = %63
  store i32 0, i32* %3, align 4
  br label %77

73:                                               ; preds = %63
  br label %74

74:                                               ; preds = %73
  %75 = load i32, i32* %4, align 4
  %76 = add nsw i32 %75, 1
  store i32 %76, i32* %4, align 4
  br label %54

77:                                               ; preds = %72, %54
  %78 = load i32, i32* %3, align 4
  %79 = icmp eq i32 %78, 1
  br i1 %79, label %80, label %91

80:                                               ; preds = %77
  %81 = load i32, i32* %2, align 4
  %82 = sext i32 %81 to i64
  %83 = getelementptr inbounds [10000 x i32], [10000 x i32]* %5, i64 0, i64 %82
  %84 = load i32, i32* %83, align 4
  %85 = load i32, i32* %2, align 4
  %86 = add nsw i32 %85, 1
  %87 = sext i32 %86 to i64
  %88 = getelementptr inbounds [10000 x i32], [10000 x i32]* %5, i64 0, i64 %87
  %89 = load i32, i32* %88, align 4
  %90 = call i32 (i8*, ...) @printf(i8* getelementptr inbounds ([7 x i8], [7 x i8]* @.str.2, i64 0, i64 0), i32 %84, i32 %89)
  br label %91

91:                                               ; preds = %80, %77
  br label %92

92:                                               ; preds = %91
  %93 = load i32, i32* %2, align 4
  %94 = add nsw i32 %93, 1
  store i32 %94, i32* %2, align 4
  br label %15

95:                                               ; preds = %15
  br label %96

96:                                               ; preds = %95, %9
  ret void
}

declare dso_local i32 @__isoc99_scanf(i8*, ...) #1

declare dso_local i32 @printf(i8*, ...) #1


!llvm.module.flags = !{!0}
!llvm.ident = !{!1}

!0 = !{i32 1, !"wchar_size", i32 4}
!1 = !{!"clang version 10.0.0-4ubuntu1 "}
